LIBRARY ORIG
EXPORTS
    ??0?$basic_ios@DU?$char_traits@D@std@@@std@@IEAA@XZ @1
    ??0?$basic_iostream@DU?$char_traits@D@std@@@std@@QEAA@PEAV?$basic_streambuf@DU?$char_traits@D@std@@@1@@Z @2
    ??0?$basic_istream@DU?$char_traits@D@std@@@std@@QEAA@PEAV?$basic_streambuf@DU?$char_traits@D@std@@@1@_N@Z @3
    ??0?$basic_ostream@DU?$char_traits@D@std@@@std@@QEAA@PEAV?$basic_streambuf@DU?$char_traits@D@std@@@1@_N@Z @4
    ??0?$basic_streambuf@DU?$char_traits@D@std@@@std@@IEAA@XZ @5
    ??0_Locinfo@std@@QEAA@PEBD@Z @6
    ??0_Lockit@std@@QEAA@H@Z @7
    ??0facet@locale@std@@IEAA@_K@Z @8
    ??1?$basic_ios@DU?$char_traits@D@std@@@std@@UEAA@XZ @9
    ??1?$basic_iostream@DU?$char_traits@D@std@@@std@@UEAA@XZ @10
    ??1?$basic_istream@DU?$char_traits@D@std@@@std@@UEAA@XZ @11
    ??1?$basic_ostream@DU?$char_traits@D@std@@@std@@UEAA@XZ @12
    ??1?$basic_streambuf@DU?$char_traits@D@std@@@std@@UEAA@XZ @13
    ??1_Locinfo@std@@QEAA@XZ @14
    ??1_Lockit@std@@QEAA@XZ @15
    ??1facet@locale@std@@MEAA@XZ @16
    ??6?$basic_ostream@DU?$char_traits@D@std@@@std@@QEAAAEAV01@I@Z @17
    ??6?$basic_ostream@DU?$char_traits@D@std@@@std@@QEAAAEAV01@P6AAEAVios_base@1@AEAV21@@Z@Z @18
    ??6?$basic_ostream@DU?$char_traits@D@std@@@std@@QEAAAEAV01@_K@Z @19
    ??Bios_base@std@@QEBA_NXZ @20
    ?_Decref@facet@locale@std@@UEAAPEAV_Facet_base@3@XZ @21
    ?_Fiopen@std@@YAPEAU_iobuf@@PEBDHH@Z @22
    ?_Fiopen@std@@YAPEAU_iobuf@@PEB_WHH@Z @23
    ?_Getcat@?$codecvt@DDU_Mbstatet@@@std@@SA_KPEAPEBVfacet@locale@2@PEBV42@@Z @24
    ?_Getcat@?$ctype@D@std@@SA_KPEAPEBVfacet@locale@2@PEBV42@@Z @25
    ?_Getcoll@_Locinfo@std@@QEBA?AU_Collvec@@XZ @26
    ?_Getcvt@_Locinfo@std@@QEBA?AU_Cvtvec@@XZ @27
    ?_Getfalse@_Locinfo@std@@QEBAPEBDXZ @28
    ?_Getgloballocale@locale@std@@CAPEAV_Locimp@12@XZ @29
    ?_Getlconv@_Locinfo@std@@QEBAPEBUlconv@@XZ @30
    ?_Gettrue@_Locinfo@std@@QEBAPEBDXZ @31
    ?_Id_cnt@id@locale@std@@0HA @32
    ?_Incref@facet@locale@std@@UEAAXXZ @33
    ?_Init@?$basic_streambuf@DU?$char_traits@D@std@@@std@@IEAAXPEAPEAD0PEAH001@Z @34
    ?_Init@?$basic_streambuf@DU?$char_traits@D@std@@@std@@IEAAXXZ @35
    ?_Init@locale@std@@CAPEAV_Locimp@12@_N@Z @36
    ?_Ipfx@?$basic_istream@DU?$char_traits@D@std@@@std@@QEAA_N_N@Z @37
    ?_Lock@?$basic_streambuf@DU?$char_traits@D@std@@@std@@UEAAXXZ @38
    ?_Osfx@?$basic_ostream@DU?$char_traits@D@std@@@std@@QEAAXXZ @39
    ?_Random_device@std@@YAIXZ @40
    ?_Syserror_map@std@@YAPEBDH@Z @41
    ?_Throw_Cpp_error@std@@YAXH@Z @42
    ?_Unlock@?$basic_streambuf@DU?$char_traits@D@std@@@std@@UEAAXXZ @43
    ?_Winerror_map@std@@YAHH@Z @44
    ?_Xbad_alloc@std@@YAXXZ @45
    ?_Xbad_function_call@std@@YAXXZ @46
    ?_Xlength_error@std@@YAXPEBD@Z @47
    ?_Xout_of_range@std@@YAXPEBD@Z @48
    ?_Xregex_error@std@@YAXW4error_type@regex_constants@1@@Z @49
    ?always_noconv@codecvt_base@std@@QEBA_NXZ @50
    ?clear@?$basic_ios@DU?$char_traits@D@std@@@std@@QEAAXH_N@Z @51
    ?flush@?$basic_ostream@DU?$char_traits@D@std@@@std@@QEAAAEAV12@XZ @52
    ?getloc@?$basic_streambuf@DU?$char_traits@D@std@@@std@@QEBA?AVlocale@2@XZ @53
    ?good@ios_base@std@@QEBA_NXZ @54
    ?id@?$codecvt@DDU_Mbstatet@@@std@@2V0locale@2@A @55
    ?id@?$collate@D@std@@2V0locale@2@A @56
    ?id@?$ctype@D@std@@2V0locale@2@A @57
    ?id@?$numpunct@D@std@@2V0locale@2@A @58
    ?imbue@?$basic_streambuf@DU?$char_traits@D@std@@@std@@MEAAXAEBVlocale@2@@Z @59
    ?in@?$codecvt@DDU_Mbstatet@@@std@@QEBAHAEAU_Mbstatet@@PEBD1AEAPEBDPEAD3AEAPEAD@Z @60
    ?out@?$codecvt@DDU_Mbstatet@@@std@@QEBAHAEAU_Mbstatet@@PEBD1AEAPEBDPEAD3AEAPEAD@Z @61
    ?read@?$basic_istream@DU?$char_traits@D@std@@@std@@QEAAAEAV12@PEAD_J@Z @62
    ?sbumpc@?$basic_streambuf@DU?$char_traits@D@std@@@std@@QEAAHXZ @63
    ?seekg@?$basic_istream@DU?$char_traits@D@std@@@std@@QEAAAEAV12@V?$fpos@U_Mbstatet@@@2@@Z @64
    ?seekg@?$basic_istream@DU?$char_traits@D@std@@@std@@QEAAAEAV12@_JH@Z @65
    ?setbuf@?$basic_streambuf@DU?$char_traits@D@std@@@std@@MEAAPEAV12@PEAD_J@Z @66
    ?setstate@?$basic_ios@DU?$char_traits@D@std@@@std@@QEAAXH_N@Z @67
    ?setw@std@@YA?AU?$_Smanip@_J@1@_J@Z @68
    ?sgetc@?$basic_streambuf@DU?$char_traits@D@std@@@std@@QEAAHXZ @69
    ?showmanyc@?$basic_streambuf@DU?$char_traits@D@std@@@std@@MEAA_JXZ @70
    ?snextc@?$basic_streambuf@DU?$char_traits@D@std@@@std@@QEAAHXZ @71
    ?sputc@?$basic_streambuf@DU?$char_traits@D@std@@@std@@QEAAHD@Z @72
    ?sputn@?$basic_streambuf@DU?$char_traits@D@std@@@std@@QEAA_JPEBD_J@Z @73
    ?sync@?$basic_streambuf@DU?$char_traits@D@std@@@std@@MEAAHXZ @74
    ?sync_with_stdio@ios_base@std@@SA_N_N@Z @75
    ?tellg@?$basic_istream@DU?$char_traits@D@std@@@std@@QEAA?AV?$fpos@U_Mbstatet@@@2@XZ @76
    ?tolower@?$ctype@D@std@@QEBADD@Z @77
    ?tolower@?$ctype@D@std@@QEBAPEBDPEADPEBD@Z @78
    ?uflow@?$basic_streambuf@DU?$char_traits@D@std@@@std@@MEAAHXZ @79
    ?uncaught_exceptions@std@@YAHXZ @80
    ?unshift@?$codecvt@DDU_Mbstatet@@@std@@QEBAHAEAU_Mbstatet@@PEAD1AEAPEAD@Z @81
    ?widen@?$basic_ios@DU?$char_traits@D@std@@@std@@QEBADD@Z @82
    ?write@?$basic_ostream@DU?$char_traits@D@std@@@std@@QEAAAEAV12@PEBD_J@Z @83
    ?xsgetn@?$basic_streambuf@DU?$char_traits@D@std@@@std@@MEAA_JPEAD_J@Z @84
    ?xsputn@?$basic_streambuf@DU?$char_traits@D@std@@@std@@MEAA_JPEBD_J@Z @85
    AcquireSRWLockExclusive @86
    AllocConsole @87
    AreFileApisANSI @88
    BCryptGenRandom @89
    CertAddCertificateContextToStore @90
    CertCloseStore @91
    CertCreateCertificateChainEngine @92
    CertEnumCertificatesInStore @93
    CertFindCertificateInStore @94
    CertFindExtension @95
    CertFreeCertificateChain @96
    CertFreeCertificateChainEngine @97
    CertFreeCertificateContext @98
    CertGetCertificateChain @99
    CertGetNameStringA @100
    CertOpenStore @101
    ClientToScreen @102
    CloseClipboard @103
    CloseHandle @104
    CloseThreadpoolWork @105
    CoTaskMemFree @106
    CopyFileW @107
    CreateDirectoryW @108
    CreateEventA @109
    CreateFileA @110
    CreateFileW @111
    CreateSymbolicLinkW @112
    CreateThreadpoolWork @113
    CryptAcquireContextA @114
    CryptCreateHash @115
    CryptDecodeObjectEx @116
    CryptDestroyHash @117
    CryptDestroyKey @118
    CryptEncrypt @119
    CryptGetHashParam @120
    CryptHashData @121
    CryptImportKey @122
    CryptQueryObject @123
    CryptReleaseContext @124
    CryptStringToBinaryA @125
    DeleteCriticalSection @126
    DeviceIoControl @127
    EmptyClipboard @128
    EnterCriticalSection @129
    FillConsoleOutputAttribute @130
    FillConsoleOutputCharacterA @131
    FindClose @132
    FindFirstFileExW @133
    FindFirstFileW @134
    FindNextFileW @135
    FindWindowA @136
    FormatMessageA @137
    FormatMessageW @138
    FreeLibrary @139
    GetClientRect @140
    GetClipboardData @141
    GetConsoleMode @142
    GetConsoleScreenBufferInfo @143
    GetConsoleWindow @144
    GetCurrentDirectoryW @145
    GetCurrentHwProfileA @146
    GetCurrentProcess @147
    GetCurrentProcessId @148
    GetCurrentThreadId @149
    GetEnvironmentVariableA @150
    GetFileAttributesExW @151
    GetFileInformationByHandle @152
    GetFileInformationByHandleEx @153
    GetFileSizeEx @154
    GetFileType @155
    GetForegroundWindow @156
    GetLastError @157
    GetLocaleInfoEx @158
    GetModuleHandleA @159
    GetProcAddress @160
    GetStdHandle @161
    GetSystemDirectoryA @162
    GetSystemMetrics @163
    GetSystemTimeAsFileTime @164
    GetTickCount @165
    GetWindowThreadProcessId @166
    GlobalAlloc @167
    GlobalLock @168
    GlobalUnlock @169
    HttpOpenRequestA @170
    HttpQueryInfoA @171
    HttpSendRequestA @172
    IdnToAscii @173
    IdnToUnicode @174
    InitializeCriticalSectionEx @175
    InitializeSListHead @176
    InternetCloseHandle @177
    InternetConnectA @178
    InternetCrackUrlA @179
    InternetOpenA @180
    InternetOpenUrlA @181
    InternetReadFile @182
    IsDebuggerPresent @183
    IsProcessorFeaturePresent @184
    IsWindowVisible @185
    LeaveCriticalSection @186
    LoadLibraryA @187
    LocalFree @188
    MapVirtualKeyA @189
    MessageBoxA @190
    MoveFileExA @191
    MultiByteToWideChar @192
    OpenClipboard @193
    Ordinal_143 @194
    Ordinal_200 @195
    Ordinal_211 @196
    Ordinal_217 @197
    Ordinal_22 @198
    Ordinal_26 @199
    Ordinal_27 @200
    Ordinal_30 @201
    Ordinal_301 @202
    Ordinal_32 @203
    Ordinal_33 @204
    Ordinal_35 @205
    Ordinal_41 @206
    Ordinal_45 @207
    Ordinal_46 @208
    Ordinal_50 @209
    Ordinal_60 @210
    Ordinal_79 @211
    PFXImportCertStore @212
    PeekNamedPipe @213
    QueryPerformanceCounter @214
    QueryPerformanceFrequency @215
    ReadConsoleA @216
    ReadFile @217
    ReleaseSRWLockExclusive @218
    RtlCaptureContext @219
    RtlLookupFunctionEntry @220
    RtlVirtualUnwind @221
    SHGetKnownFolderPath @222
    SetClipboardData @223
    SetConsoleCursorPosition @224
    SetConsoleTextAttribute @225
    SetConsoleTitleA @226
    SetEvent @227
    SetFileInformationByHandle @228
    SetLastError @229
    SetUnhandledExceptionFilter @230
    SetWindowPos @231
    ShowWindow @232
    Sleep @233
    SleepConditionVariableSRW @234
    SleepEx @235
    SubmitThreadpoolWork @236
    TerminateProcess @237
    UnhandledExceptionFilter @238
    VerSetConditionMask @239
    VerifyVersionInfoW @240
    VirtualQuery @241
    WSACloseEvent @242
    WSACreateEvent @243
    WSAEnumNetworkEvents @244
    WSAEventSelect @245
    WSAGetLastError @246
    WSAIoctl @247
    WSASetLastError @248
    WaitForMultipleObjects @249
    WaitForSingleObject @250
    WaitForSingleObjectEx @251
    WakeAllConditionVariable @252
    WideCharToMultiByte @253
    _Cnd_do_broadcast_at_thread_exit @254
    _CxxThrowException @255
    _Query_perf_counter @256
    _Query_perf_frequency @257
    _Strcoll @258
    _Strxfrm @259
    _Thrd_detach @260
    __C_specific_handler @261
    __CxxFrameHandler4 @262
    __WSAFDIsSet @263
    ___lc_codepage_func @264
    __acrt_iob_func @265
    __current_exception @266
    __current_exception_context @267
    __std_exception_copy @268
    __std_exception_destroy @269
    __std_terminate @270
    __std_type_info_destroy_list @271
    __stdio_common_vfprintf @272
    __stdio_common_vsprintf @273
    __stdio_common_vsprintf_s @274
    __stdio_common_vsscanf @275
    __stdio_common_vswprintf @276
    __sys_errlist @277
    __sys_nerr @278
    _access @279
    _beginthreadex @280
    _callnewh @281
    _cexit @282
    _close @283
    _configure_narrow_argv @284
    _crt_atexit @285
    _dclass @286
    _difftime64 @287
    _dsign @288
    _errno @289
    _execute_onexit_table @290
    _fdclass @291
    _fdopen @292
    _fdsign @293
    _fileno @294
    _fseeki64 @295
    _fstat64 @296
    _get_stream_buffer_pointers @297
    _gmtime64 @298
    _gmtime64_s @299
    _initialize_narrow_environment @300
    _initialize_onexit_table @301
    _initterm @302
    _initterm_e @303
    _invoke_watson @304
    _ldclass @305
    _ldsign @306
    _localtime64_s @307
    _lock_file @308
    _lseeki64 @309
    _open @310
    _purecall @311
    _read @312
    _register_onexit_function @313
    _seh_filter_dll @314
    _stat64 @315
    _strdup @316
    _time64 @317
    _unlink @318
    _unlock_file @319
    _write @320
    abort @321
    accept @322
    acos @323
    asin @324
    atan @325
    atan2 @326
    atoi @327
    bind @328
    calloc @329
    ceil @330
    ceilf @331
    clock @332
    closesocket @333
    connect @334
    cos @335
    cosh @336
    exp @337
    fclose @338
    feof @339
    fflush @340
    fgetc @341
    fgetpos @342
    fgets @343
    floor @344
    floorf @345
    fmod @346
    fopen @347
    fputc @348
    fputs @349
    fread @350
    free @351
    freeaddrinfo @352
    freopen_s @353
    frexp @354
    fseek @355
    fsetpos @356
    ftell @357
    fwrite @358
    getaddrinfo @359
    getenv @360
    gethostname @361
    getpeername @362
    getsockname @363
    getsockopt @364
    htonl @365
    htons @366
    ioctlsocket @367
    isalnum @368
    isalpha @369
    iscntrl @370
    isdigit @371
    isgraph @372
    islower @373
    ispunct @374
    isspace @375
    isupper @376
    isxdigit @377
    keybd_event @378
    ldexp @379
    listen @380
    log @381
    log10 @382
    log2 @383
    malloc @384
    memchr @385
    memcmp @386
    memcpy @387
    memmove @388
    memset @389
    modf @390
    mouse_event @391
    ntohs @392
    pow @393
    qsort @394
    realloc @395
    recv @396
    recvfrom @397
    round @398
    select @399
    send @400
    sendto @401
    setsockopt @402
    setvbuf @403
    sin @404
    sinh @405
    socket @406
    sqrt @407
    sqrtf @408
    strchr @409
    strcmp @410
    strcspn @411
    strftime @412
    strncat @413
    strncmp @414
    strncpy @415
    strpbrk @416
    strrchr @417
    strspn @418
    strstr @419
    strtod @420
    strtol @421
    strtoll @422
    strtoul @423
    strtoull @424
    tan @425
    tanh @426
    terminate @427
    tolower @428
    toupper @429
    ungetc @430
    wcstombs @431
